; Function Attrs: cold nounwind optsize uwtable
define internal range(i32 -2147483648, 1) i32 @data_open(ptr noundef %0, ptr noundef %1, i32 %2) #0 {
  %4 = alloca ptr, align 8
  store ptr %1, ptr %4, align 8, !tbaa !4
  %5 = getelementptr inbounds nuw i8, ptr %0, i64 16
  %6 = load ptr, ptr %5, align 8, !tbaa !9
  %7 = call i32 @av_strstart(ptr noundef %1, ptr noundef nonnull @.str.1, ptr noundef nonnull %4) #6
  %8 = load ptr, ptr %4, align 8, !tbaa !4
  %9 = call ptr @strchr(ptr noundef nonnull dereferenceable(1) %8, i32 noundef 44) #7
  %.not = icmp eq ptr %9, null
  br i1 %.not, label %15, label %.preheader

.preheader:                                       ; preds = %3
  %10 = icmp ult ptr %8, %9
  br i1 %10, label %.lr.ph, label %._crit_edge.thread

._crit_edge.thread:                               ; preds = %.preheader
  %11 = getelementptr inbounds nuw i8, ptr %9, i64 1
  %12 = call i64 @strlen(ptr noundef nonnull dereferenceable(1) %11) #7
  br label %59

.lr.ph:                                           ; preds = %.preheader
  %13 = ptrtoint ptr %9 to i64
  br label %.outer

.outer:                                           ; preds = %.thread72, %.lr.ph
  %14 = phi i1 [ false, %.thread72 ], [ true, %.lr.ph ]
  %.05468.ph = phi ptr [ %35, %.thread72 ], [ %8, %.lr.ph ]
  br label %16

15:                                               ; preds = %3
  call void (ptr, i32, ptr, ...) @av_log(ptr noundef nonnull %0, i32 noundef 16, ptr noundef nonnull @.str.2) #6
  br label %.thread

16:                                               ; preds = %.outer, %31
  %.05468 = phi ptr [ %33, %31 ], [ %.05468.ph, %.outer ]
  %17 = ptrtoint ptr %.05468 to i64
  %18 = sub i64 %13, %17
  %19 = call ptr @memchr(ptr noundef nonnull %.05468, i32 noundef 59, i64 noundef %18) #7
  %.not.i = icmp eq ptr %19, null
  %20 = select i1 %.not.i, ptr %9, ptr %19
  %21 = load ptr, ptr %4, align 8, !tbaa !4
  %22 = icmp eq ptr %.05468, %21
  %23 = ptrtoint ptr %20 to i64
  %24 = sub i64 %23, %17
  br i1 %22, label %25, label %29

25:                                               ; preds = %16
  %26 = call ptr @memchr(ptr noundef nonnull %.05468, i32 noundef 47, i64 noundef %24) #7
  %.not63 = icmp eq ptr %26, null
  br i1 %.not63, label %27, label %31

27:                                               ; preds = %25
  %28 = trunc i64 %24 to i32
  call void (ptr, i32, ptr, ...) @av_log(ptr noundef %0, i32 noundef 16, ptr noundef nonnull @.str.3, i32 noundef %28, ptr noundef nonnull %.05468) #6
  br label %.thread

29:                                               ; preds = %16
  %30 = call i32 @av_strncasecmp(ptr noundef nonnull %.05468, ptr noundef nonnull @.str.5, i64 noundef %24) #6
  %.not62 = icmp eq i32 %30, 0
  br i1 %.not62, label %.thread72, label %31

31:                                               ; preds = %29, %25
  %.str.6.sink = phi ptr [ @.str.4, %25 ], [ @.str.6, %29 ]
  %32 = trunc i64 %24 to i32
  call void (ptr, i32, ptr, ...) @av_log(ptr noundef %0, i32 noundef 40, ptr noundef nonnull %.str.6.sink, i32 noundef %32, ptr noundef nonnull %.05468) #6
  %33 = getelementptr inbounds nuw i8, ptr %20, i64 1
  %34 = icmp ult ptr %33, %9
  br i1 %34, label %16, label %._crit_edge, !llvm.loop !16

.thread72:                                        ; preds = %29
  %35 = getelementptr inbounds nuw i8, ptr %20, i64 1
  %36 = icmp ult ptr %35, %9
  br i1 %36, label %.outer, label %._crit_edge.thread75, !llvm.loop !16

._crit_edge.thread75:                             ; preds = %.thread72
  %37 = getelementptr inbounds nuw i8, ptr %9, i64 1
  %38 = call i64 @strlen(ptr noundef nonnull dereferenceable(1) %37) #7
  br label %41

._crit_edge:                                      ; preds = %31
  %39 = getelementptr inbounds nuw i8, ptr %9, i64 1
  %40 = call i64 @strlen(ptr noundef nonnull dereferenceable(1) %39) #7
  br i1 %14, label %59, label %41

41:                                               ; preds = %._crit_edge.thread75, %._crit_edge
  %42 = phi i64 [ %38, %._crit_edge.thread75 ], [ %40, %._crit_edge ]
  %43 = phi ptr [ %37, %._crit_edge.thread75 ], [ %39, %._crit_edge ]
  %44 = lshr i64 %42, 2
  %45 = mul nuw i64 %44, 3
  %46 = add nuw i64 %45, 1
  %47 = icmp ugt i64 %42, 2863311531
  br i1 %47, label %.thread, label %48

48:                                               ; preds = %41
  %49 = call noalias ptr @av_malloc(i64 noundef %46) #6
  %.not61 = icmp eq ptr %49, null
  br i1 %.not61, label %.thread, label %50

50:                                               ; preds = %48
  %51 = trunc nuw nsw i64 %46 to i32
  %52 = call i32 @av_base64_decode(ptr noundef nonnull %49, ptr noundef nonnull %43, i32 noundef %51) #6
  %53 = icmp slt i32 %52, 0
  br i1 %53, label %54, label %55

54:                                               ; preds = %50
  call void @av_free(ptr noundef nonnull %49) #6
  call void (ptr, i32, ptr, ...) @av_log(ptr noundef %0, i32 noundef 16, ptr noundef nonnull @.str.7) #6
  br label %.thread

55:                                               ; preds = %50
  %56 = getelementptr inbounds nuw i8, ptr %6, i64 8
  store ptr %49, ptr %56, align 8, !tbaa !18
  store ptr %49, ptr %6, align 8, !tbaa !20
  %57 = zext nneg i32 %52 to i64
  %58 = getelementptr inbounds nuw i8, ptr %6, i64 16
  store i64 %57, ptr %58, align 8, !tbaa !21
  br label %.thread

59:                                               ; preds = %._crit_edge.thread, %._crit_edge
  %60 = phi i64 [ %12, %._crit_edge.thread ], [ %40, %._crit_edge ]
  %61 = phi ptr [ %11, %._crit_edge.thread ], [ %39, %._crit_edge ]
  store ptr %61, ptr %6, align 8, !tbaa !20
  %62 = getelementptr inbounds nuw i8, ptr %6, i64 16
  store i64 %60, ptr %62, align 8, !tbaa !21
  br label %.thread

.thread:                                          ; preds = %41, %48, %54, %59, %55, %27, %15
  %.0 = phi i32 [ -22, %27 ], [ -22, %15 ], [ 0, %55 ], [ 0, %59 ], [ -12, %41 ], [ -12, %48 ], [ %52, %54 ]
  ret i32 %.0
}